; Function Attrs: mustprogress nounwind uwtable
define hidden void @_ZN2cv10xobjdetect9WaldBoostD2Ev(ptr noundef nonnull readonly align 8 captures(none) dereferenceable(128) %0) unnamed_addr #12 align 2 personality ptr @__gxx_personality_v0 {
  %2 = getelementptr inbounds nuw i8, ptr %0, i64 104
  %3 = load ptr, ptr %2, align 8, !tbaa !36
  %.not.i.i.i = icmp eq ptr %3, null
  br i1 %.not.i.i.i, label %_ZNSt6vectorIfSaIfEED2Ev.exit, label %4

4:                                                ; preds = %1
  tail call void @_ZdlPv(ptr noundef nonnull %3) #24
  br label %_ZNSt6vectorIfSaIfEED2Ev.exit

_ZNSt6vectorIfSaIfEED2Ev.exit:                    ; preds = %1, %4
  %5 = getelementptr inbounds nuw i8, ptr %0, i64 80
  %6 = load ptr, ptr %5, align 8, !tbaa !20
  %.not.i.i.i1 = icmp eq ptr %6, null
  br i1 %.not.i.i.i1, label %_ZNSt6vectorIiSaIiEED2Ev.exit, label %7

7:                                                ; preds = %_ZNSt6vectorIfSaIfEED2Ev.exit
  tail call void @_ZdlPv(ptr noundef nonnull %6) #24
  br label %_ZNSt6vectorIiSaIiEED2Ev.exit

_ZNSt6vectorIiSaIiEED2Ev.exit:                    ; preds = %_ZNSt6vectorIfSaIfEED2Ev.exit, %7
  %8 = getelementptr inbounds nuw i8, ptr %0, i64 56
  %9 = load ptr, ptr %8, align 8, !tbaa !20
  %.not.i.i.i2 = icmp eq ptr %9, null
  br i1 %.not.i.i.i2, label %_ZNSt6vectorIiSaIiEED2Ev.exit3, label %10

10:                                               ; preds = %_ZNSt6vectorIiSaIiEED2Ev.exit
  tail call void @_ZdlPv(ptr noundef nonnull %9) #24
  br label %_ZNSt6vectorIiSaIiEED2Ev.exit3

_ZNSt6vectorIiSaIiEED2Ev.exit3:                   ; preds = %_ZNSt6vectorIiSaIiEED2Ev.exit, %10
  %11 = getelementptr inbounds nuw i8, ptr %0, i64 32
  %12 = load ptr, ptr %11, align 8, !tbaa !36
  %.not.i.i.i4 = icmp eq ptr %12, null
  br i1 %.not.i.i.i4, label %_ZNSt6vectorIfSaIfEED2Ev.exit5, label %13

13:                                               ; preds = %_ZNSt6vectorIiSaIiEED2Ev.exit3
  tail call void @_ZdlPv(ptr noundef nonnull %12) #24
  br label %_ZNSt6vectorIfSaIfEED2Ev.exit5

_ZNSt6vectorIfSaIfEED2Ev.exit5:                   ; preds = %_ZNSt6vectorIiSaIiEED2Ev.exit3, %13
  %14 = getelementptr inbounds nuw i8, ptr %0, i64 8
  %15 = load ptr, ptr %14, align 8, !tbaa !36
  %.not.i.i.i6 = icmp eq ptr %15, null
  br i1 %.not.i.i.i6, label %_ZNSt6vectorIfSaIfEED2Ev.exit7, label %16

16:                                               ; preds = %_ZNSt6vectorIfSaIfEED2Ev.exit5
  tail call void @_ZdlPv(ptr noundef nonnull %15) #24
  br label %_ZNSt6vectorIfSaIfEED2Ev.exit7

_ZNSt6vectorIfSaIfEED2Ev.exit7:                   ; preds = %_ZNSt6vectorIfSaIfEED2Ev.exit5, %16
  ret void
}